; Function Attrs: mustprogress nounwind uwtable
define void @_ZN7glslang14TParseVersions11doubleCheckERKNS_10TSourceLocEPKc(ptr noundef nonnull align 8 dereferenceable(224) %0, ptr noundef nonnull align 8 dereferenceable(24) %1, ptr noundef %2) unnamed_addr #0 align 2 {
  %4 = alloca ptr, align 8
  %5 = getelementptr inbounds i8, ptr %0, i64 28
  %6 = load i32, ptr %5, align 4
  %7 = icmp eq i32 %6, 0
  br i1 %7, label %8, label %9

8:                                                ; preds = %3
  tail call void @_ZN7glslang14TParseVersions15profileRequiresERKNS_10TSourceLocEiiiPKPKcS5_(ptr noundef nonnull align 8 dereferenceable(224) %0, ptr noundef nonnull align 8 dereferenceable(24) %1, i32 noundef 6, i32 noundef 400, i32 noundef 2, ptr noundef nonnull @__const._ZN7glslang14TParseVersions11doubleCheckERKNS_10TSourceLocEPKc.f64_Extensions, ptr noundef %2)
  br label %10

9:                                                ; preds = %3
  call void @llvm.lifetime.start.p0(i64 8, ptr nonnull %4)
  store ptr @.str.34, ptr %4, align 8
  call void @_ZN7glslang14TParseVersions15profileRequiresERKNS_10TSourceLocEiiiPKPKcS5_(ptr noundef nonnull align 8 dereferenceable(224) %0, ptr noundef nonnull align 8 dereferenceable(24) %1, i32 noundef 6, i32 noundef 400, i32 noundef 1, ptr noundef nonnull %4, ptr noundef %2)
  call void @llvm.lifetime.end.p0(i64 8, ptr nonnull %4)
  br label %10

10:                                               ; preds = %9, %8
  ret void
}